target datalayout = "e-m:e-p270:32:32-p271:32:32-p272:64:64-i64:64-i128:128-f80:128-n8:16:32:64-S128"
target triple = "x86_64-pc-linux-gnu"

%struct.blake2s_state = type <{ [240 x i8], ptr, ptr, ptr, ptr, i64, i8, [7 x i8] }>
%struct.Blake2ThreadData = type { ptr, ptr, i64 }

; Function Attrs: inlinehint mustprogress nounwind uwtable
define internal void @_ZL25blake2s_increment_counterP13blake2s_statej(ptr noundef %0, i32 noundef %1) #5 {
  %3 = alloca ptr, align 8
  %4 = alloca i32, align 4
  store ptr %0, ptr %3, align 8, !tbaa !20
  store i32 %1, ptr %4, align 4, !tbaa !14
  %5 = load i32, ptr %4, align 4, !tbaa !14
  %6 = load ptr, ptr %3, align 8, !tbaa !20
  %7 = getelementptr inbounds nuw %struct.blake2s_state, ptr %6, i32 0, i32 3
  %8 = load ptr, ptr %7, align 8, !tbaa !42
  %9 = getelementptr inbounds i32, ptr %8, i64 0
  %10 = load i32, ptr %9, align 4, !tbaa !14
  %11 = add i32 %10, %5
  store i32 %11, ptr %9, align 4, !tbaa !14
  %12 = load ptr, ptr %3, align 8, !tbaa !20
  %13 = getelementptr inbounds nuw %struct.blake2s_state, ptr %12, i32 0, i32 3
  %14 = load ptr, ptr %13, align 8, !tbaa !42
  %15 = getelementptr inbounds i32, ptr %14, i64 0
  %16 = load i32, ptr %15, align 4, !tbaa !14
  %17 = load i32, ptr %4, align 4, !tbaa !14
  %18 = icmp ult i32 %16, %17
  %19 = zext i1 %18 to i32
  %20 = load ptr, ptr %3, align 8, !tbaa !20
  %21 = getelementptr inbounds nuw %struct.blake2s_state, ptr %20, i32 0, i32 3
  %22 = load ptr, ptr %21, align 8, !tbaa !42
  %23 = getelementptr inbounds i32, ptr %22, i64 1
  %24 = load i32, ptr %23, align 4, !tbaa !14
  %25 = add i32 %24, %19
  store i32 %25, ptr %23, align 4, !tbaa !14
  ret void
}

; Function Attrs: mustprogress uwtable
define internal void @_ZL14blake2s_updateP13blake2s_statePKhm(ptr noundef %0, ptr noundef %1, i64 noundef %2) #0 {
  %4 = alloca ptr, align 8
  %5 = alloca ptr, align 8
  %6 = alloca i64, align 8
  %7 = alloca i64, align 8
  %8 = alloca i64, align 8
  store ptr %0, ptr %4, align 8, !tbaa !20
  store ptr %1, ptr %5, align 8, !tbaa !30
  store i64 %2, ptr %6, align 8, !tbaa !28
  br label %9

9:                                                ; preds = %72, %3
  %10 = load i64, ptr %6, align 8, !tbaa !28
  %11 = icmp ugt i64 %10, 0
  br i1 %11, label %12, label %73

12:                                               ; preds = %9
  call void @llvm.lifetime.start.p0(i64 8, ptr %7) #7
  %13 = load ptr, ptr %4, align 8, !tbaa !20
  %14 = getelementptr inbounds nuw %struct.blake2s_state, ptr %13, i32 0, i32 5
  %15 = load i64, ptr %14, align 8, !tbaa !33
  store i64 %15, ptr %7, align 8, !tbaa !28
  call void @llvm.lifetime.start.p0(i64 8, ptr %8) #7
  %16 = load i64, ptr %7, align 8, !tbaa !28
  %17 = sub i64 128, %16
  store i64 %17, ptr %8, align 8, !tbaa !28
  %18 = load i64, ptr %6, align 8, !tbaa !28
  %19 = load i64, ptr %8, align 8, !tbaa !28
  %20 = icmp ugt i64 %18, %19
  br i1 %20, label %21, label %56

21:                                               ; preds = %12
  %22 = load ptr, ptr %4, align 8, !tbaa !20
  %23 = getelementptr inbounds nuw %struct.blake2s_state, ptr %22, i32 0, i32 1
  %24 = load ptr, ptr %23, align 8, !tbaa !34
  %25 = load i64, ptr %7, align 8, !tbaa !28
  %26 = getelementptr inbounds nuw i8, ptr %24, i64 %25
  %27 = load ptr, ptr %5, align 8, !tbaa !30
  %28 = load i64, ptr %8, align 8, !tbaa !28
  call void @llvm.memcpy.p0.p0.i64(ptr align 1 %26, ptr align 1 %27, i64 %28, i1 false)
  %29 = load i64, ptr %8, align 8, !tbaa !28
  %30 = load ptr, ptr %4, align 8, !tbaa !20
  %31 = getelementptr inbounds nuw %struct.blake2s_state, ptr %30, i32 0, i32 5
  %32 = load i64, ptr %31, align 8, !tbaa !33
  %33 = add i64 %32, %29
  store i64 %33, ptr %31, align 8, !tbaa !33
  %34 = load ptr, ptr %4, align 8, !tbaa !20
  call void @_ZL25blake2s_increment_counterP13blake2s_statej(ptr noundef %34, i32 noundef 64)
  %35 = load ptr, ptr %4, align 8, !tbaa !20
  %36 = load ptr, ptr %4, align 8, !tbaa !20
  %37 = getelementptr inbounds nuw %struct.blake2s_state, ptr %36, i32 0, i32 1
  %38 = load ptr, ptr %37, align 8, !tbaa !34
  call void @_ZL16blake2s_compressP13blake2s_statePKh(ptr noundef %35, ptr noundef %38)
  %39 = load ptr, ptr %4, align 8, !tbaa !20
  %40 = getelementptr inbounds nuw %struct.blake2s_state, ptr %39, i32 0, i32 1
  %41 = load ptr, ptr %40, align 8, !tbaa !34
  %42 = load ptr, ptr %4, align 8, !tbaa !20
  %43 = getelementptr inbounds nuw %struct.blake2s_state, ptr %42, i32 0, i32 1
  %44 = load ptr, ptr %43, align 8, !tbaa !34
  %45 = getelementptr inbounds i8, ptr %44, i64 64
  call void @llvm.memcpy.p0.p0.i64(ptr align 1 %41, ptr align 1 %45, i64 64, i1 false)
  %46 = load ptr, ptr %4, align 8, !tbaa !20
  %47 = getelementptr inbounds nuw %struct.blake2s_state, ptr %46, i32 0, i32 5
  %48 = load i64, ptr %47, align 8, !tbaa !33
  %49 = sub i64 %48, 64
  store i64 %49, ptr %47, align 8, !tbaa !33
  %50 = load i64, ptr %8, align 8, !tbaa !28
  %51 = load ptr, ptr %5, align 8, !tbaa !30
  %52 = getelementptr inbounds nuw i8, ptr %51, i64 %50
  store ptr %52, ptr %5, align 8, !tbaa !30
  %53 = load i64, ptr %8, align 8, !tbaa !28
  %54 = load i64, ptr %6, align 8, !tbaa !28
  %55 = sub i64 %54, %53
  store i64 %55, ptr %6, align 8, !tbaa !28
  br label %72

56:                                               ; preds = %12
  %57 = load ptr, ptr %4, align 8, !tbaa !20
  %58 = getelementptr inbounds nuw %struct.blake2s_state, ptr %57, i32 0, i32 1
  %59 = load ptr, ptr %58, align 8, !tbaa !34
  %60 = load i64, ptr %7, align 8, !tbaa !28
  %61 = getelementptr inbounds nuw i8, ptr %59, i64 %60
  %62 = load ptr, ptr %5, align 8, !tbaa !30
  %63 = load i64, ptr %6, align 8, !tbaa !28
  call void @llvm.memcpy.p0.p0.i64(ptr align 1 %61, ptr align 1 %62, i64 %63, i1 false)
  %64 = load i64, ptr %6, align 8, !tbaa !28
  %65 = load ptr, ptr %4, align 8, !tbaa !20
  %66 = getelementptr inbounds nuw %struct.blake2s_state, ptr %65, i32 0, i32 5
  %67 = load i64, ptr %66, align 8, !tbaa !33
  %68 = add i64 %67, %64
  store i64 %68, ptr %66, align 8, !tbaa !33
  %69 = load i64, ptr %6, align 8, !tbaa !28
  %70 = load ptr, ptr %5, align 8, !tbaa !30
  %71 = getelementptr inbounds nuw i8, ptr %70, i64 %69
  store ptr %71, ptr %5, align 8, !tbaa !30
  store i64 0, ptr %6, align 8, !tbaa !28
  br label %72

72:                                               ; preds = %56, %21
  call void @llvm.lifetime.end.p0(i64 8, ptr %8) #7
  call void @llvm.lifetime.end.p0(i64 8, ptr %7) #7
  br label %9, !llvm.loop !35

73:                                               ; preds = %9
  ret void
}

; Function Attrs: mustprogress uwtable
define void @_ZN16Blake2ThreadData6UpdateEv(ptr noundef nonnull align 8 dereferenceable(24) %0) #0 align 2 {
  %2 = alloca ptr, align 8
  %3 = alloca i64, align 8
  %4 = alloca ptr, align 8
  store ptr %0, ptr %2, align 8, !tbaa !24
  %5 = load ptr, ptr %2, align 8
  call void @llvm.lifetime.start.p0(i64 8, ptr %3) #7
  %6 = getelementptr inbounds nuw %struct.Blake2ThreadData, ptr %5, i32 0, i32 2
  %7 = load i64, ptr %6, align 8, !tbaa !26
  store i64 %7, ptr %3, align 8, !tbaa !28
  call void @llvm.lifetime.start.p0(i64 8, ptr %4) #7
  %8 = getelementptr inbounds nuw %struct.Blake2ThreadData, ptr %5, i32 0, i32 1
  %9 = load ptr, ptr %8, align 8, !tbaa !29
  store ptr %9, ptr %4, align 8, !tbaa !30
  br label %10

10:                                               ; preds = %13, %1
  %11 = load i64, ptr %3, align 8, !tbaa !28
  %12 = icmp uge i64 %11, 512
  br i1 %12, label %13, label %21

13:                                               ; preds = %10
  %14 = getelementptr inbounds nuw %struct.Blake2ThreadData, ptr %5, i32 0, i32 0
  %15 = load ptr, ptr %14, align 8, !tbaa !31
  %16 = load ptr, ptr %4, align 8, !tbaa !30
  call void @_ZL14blake2s_updateP13blake2s_statePKhm(ptr noundef %15, ptr noundef %16, i64 noundef 64)
  %17 = load ptr, ptr %4, align 8, !tbaa !30
  %18 = getelementptr inbounds i8, ptr %17, i64 512
  store ptr %18, ptr %4, align 8, !tbaa !30
  %19 = load i64, ptr %3, align 8, !tbaa !28
  %20 = sub i64 %19, 512
  store i64 %20, ptr %3, align 8, !tbaa !28
  br label %10, !llvm.loop !32

21:                                               ; preds = %10
  call void @llvm.lifetime.end.p0(i64 8, ptr %4) #7
  call void @llvm.lifetime.end.p0(i64 8, ptr %3) #7
  ret void
}