; Function Attrs: mustprogress nofree norecurse nosync nounwind memory(readwrite, inaccessiblemem: none) uwtable
define void @_ZN16Blake2ThreadData6UpdateEv(ptr noundef nonnull readonly align 8 captures(none) dereferenceable(24) %0) local_unnamed_addr #0 align 2 {
  %2 = getelementptr inbounds nuw i8, ptr %0, i64 16
  %3 = load i64, ptr %2, align 8, !tbaa !19
  %4 = icmp ugt i64 %3, 511
  br i1 %4, label %.split.preheader, label %._crit_edge

.split.preheader:                                 ; preds = %1
  %5 = getelementptr inbounds nuw i8, ptr %0, i64 8
  %6 = load ptr, ptr %5, align 8, !tbaa !22
  br label %.split

.split:                                           ; preds = %.split.preheader, %.thread.i
  %.013 = phi ptr [ %17, %.thread.i ], [ %6, %.split.preheader ]
  %.0412 = phi i64 [ %18, %.thread.i ], [ %3, %.split.preheader ]
  %7 = load ptr, ptr %0, align 8, !tbaa !23
  %8 = getelementptr inbounds nuw i8, ptr %7, i64 272
  %9 = getelementptr inbounds nuw i8, ptr %7, i64 240
  %10 = getelementptr i8, ptr %7, i64 256
  %.pre.i = load i64, ptr %8, align 8, !tbaa !3
  %11 = sub i64 128, %.pre.i
  %12 = icmp ult i64 %11, 64
  br i1 %12, label %.lr.ph, label %.thread.i

.thread.i:                                        ; preds = %.lr.ph, %.split
  %.lcssa = phi i64 [ %.pre.i, %.split ], [ %37, %.lr.ph ]
  %.033.i.lcssa = phi ptr [ %.013, %.split ], [ %.1.i, %.lr.ph ]
  %.02832.i.lcssa = phi i64 [ 64, %.split ], [ %38, %.lr.ph ]
  %13 = load ptr, ptr %9, align 8, !tbaa !24
  %14 = getelementptr inbounds nuw i8, ptr %13, i64 %.lcssa
  tail call void @llvm.memcpy.p0.p0.i64(ptr noundef nonnull align 1 dereferenceable(1) %14, ptr noundef nonnull align 1 dereferenceable(1) %.033.i.lcssa, i64 %.02832.i.lcssa, i1 false)
  %15 = load i64, ptr %8, align 8, !tbaa !3
  %16 = add i64 %15, %.02832.i.lcssa
  store i64 %16, ptr %8, align 8, !tbaa !3
  %17 = getelementptr inbounds nuw i8, ptr %.013, i64 512
  %18 = add i64 %.0412, -512
  %19 = icmp ugt i64 %18, 511
  br i1 %19, label %.split, label %._crit_edge, !llvm.loop !25

.lr.ph:                                           ; preds = %.split, %.lr.ph
  %20 = phi i64 [ %39, %.lr.ph ], [ %11, %.split ]
  %.02832.i9 = phi i64 [ %38, %.lr.ph ], [ 64, %.split ]
  %.033.i8 = phi ptr [ %.1.i, %.lr.ph ], [ %.013, %.split ]
  %21 = phi i64 [ %37, %.lr.ph ], [ %.pre.i, %.split ]
  %22 = load ptr, ptr %9, align 8, !tbaa !24
  %23 = getelementptr inbounds nuw i8, ptr %22, i64 %21
  tail call void @llvm.memcpy.p0.p0.i64(ptr align 1 %23, ptr align 1 %.033.i8, i64 %20, i1 false)
  %24 = load i64, ptr %8, align 8, !tbaa !3
  %25 = add i64 %24, %20
  store i64 %25, ptr %8, align 8, !tbaa !3
  %.val.i = load ptr, ptr %10, align 8, !tbaa !26
  %26 = load i32, ptr %.val.i, align 4, !tbaa !12
  %27 = add i32 %26, 64
  store i32 %27, ptr %.val.i, align 4, !tbaa !12
  %28 = icmp ugt i32 %26, -65
  %29 = zext i1 %28 to i32
  %30 = getelementptr inbounds nuw i8, ptr %.val.i, i64 4
  %31 = load i32, ptr %30, align 4, !tbaa !12
  %32 = add i32 %31, %29
  store i32 %32, ptr %30, align 4, !tbaa !12
  %33 = load ptr, ptr %9, align 8, !tbaa !24
  tail call fastcc void @_ZL16blake2s_compressP13blake2s_statePKh(ptr noundef nonnull %7, ptr noundef %33)
  %34 = load ptr, ptr %9, align 8, !tbaa !24
  %35 = getelementptr inbounds nuw i8, ptr %34, i64 64
  tail call void @llvm.memcpy.p0.p0.i64(ptr noundef nonnull align 1 dereferenceable(64) %34, ptr noundef nonnull align 1 dereferenceable(64) %35, i64 64, i1 false)
  %36 = load i64, ptr %8, align 8, !tbaa !3
  %37 = add i64 %36, -64
  %38 = sub nuw i64 %.02832.i9, %20
  store i64 %37, ptr %8, align 8, !tbaa !3
  %.1.i = getelementptr inbounds nuw i8, ptr %.033.i8, i64 %20
  %39 = sub i64 192, %36
  %40 = icmp ugt i64 %38, %39
  br i1 %40, label %.lr.ph, label %.thread.i

._crit_edge:                                      ; preds = %.thread.i, %1
  ret void
}